; Function Attrs: nounwind uwtable
define range(i32 0, 2) i32 @Cudd_zddPrintMinterm(ptr noundef captures(none) %0, ptr noundef %1) local_unnamed_addr #0 {
  %3 = getelementptr inbounds nuw i8, ptr %0, i64 140
  %4 = load i32, ptr %3, align 4
  %5 = sext i32 %4 to i64
  %6 = shl nsw i64 %5, 2
  %7 = tail call noalias ptr @malloc(i64 noundef %6) #10
  %8 = icmp eq ptr %7, null
  br i1 %8, label %10, label %.preheader

.preheader:                                       ; preds = %2
  %9 = icmp sgt i32 %4, 0
  br i1 %9, label %.lr.ph.preheader, label %._crit_edge

.lr.ph.preheader:                                 ; preds = %.preheader
  %wide.trip.count = zext nneg i32 %4 to i64
  br label %.lr.ph

10:                                               ; preds = %2
  %11 = getelementptr inbounds nuw i8, ptr %0, i64 624
  store i32 1, ptr %11, align 8
  br label %13

.lr.ph:                                           ; preds = %.lr.ph.preheader, %.lr.ph
  %indvars.iv = phi i64 [ 0, %.lr.ph.preheader ], [ %indvars.iv.next, %.lr.ph ]
  %12 = getelementptr inbounds nuw i32, ptr %7, i64 %indvars.iv
  store i32 3, ptr %12, align 4
  %indvars.iv.next = add nuw nsw i64 %indvars.iv, 1
  %exitcond.not = icmp eq i64 %indvars.iv.next, %wide.trip.count
  br i1 %exitcond.not, label %._crit_edge, label %.lr.ph, !llvm.loop !4

._crit_edge:                                      ; preds = %.lr.ph, %.preheader
  tail call fastcc void @zdd_print_minterm_aux(ptr noundef %0, ptr noundef %1, i32 noundef 0, ptr noundef %7)
  tail call void @free(ptr noundef nonnull %7) #11
  br label %13

13:                                               ; preds = %._crit_edge, %10
  %.0 = phi i32 [ 0, %10 ], [ 1, %._crit_edge ]
  ret i32 %.0
}